; Function Attrs: mustprogress nofree norecurse nosync nounwind sspstrong willreturn memory(read, inaccessiblemem: none) uwtable
define hidden zeroext i1 @rb_RB_TYPE_P(i64 noundef %0, i32 noundef %1) local_unnamed_addr #4 {
  %3 = icmp eq i64 %0, 0
  %4 = and i64 %0, 7
  %5 = icmp ne i64 %4, 0
  %6 = or i1 %3, %5
  br i1 %6, label %12, label %7

7:                                                ; preds = %2
  %8 = inttoptr i64 %0 to ptr
  %9 = load i64, ptr %8, align 8, !tbaa !11
  %10 = trunc i64 %9 to i32
  %11 = and i32 %10, 31
  br label %rbimpl_RB_TYPE_P_fastpath.exit

12:                                               ; preds = %2
  %13 = tail call i64 @llvm.fshl.i64(i64 %0, i64 %0, i64 62)
  %14 = icmp ult i64 %13, 10
  br i1 %14, label %switch.hole_check, label %15

15:                                               ; preds = %switch.hole_check, %12
  %16 = and i64 %0, 1
  %.not.i.i = icmp eq i64 %16, 0
  br i1 %.not.i.i, label %17, label %rbimpl_RB_TYPE_P_fastpath.exit

17:                                               ; preds = %15
  %18 = and i64 %0, 254
  %19 = icmp eq i64 %18, 12
  %spec.select.i.i = select i1 %19, i32 20, i32 4
  br label %rbimpl_RB_TYPE_P_fastpath.exit

switch.hole_check:                                ; preds = %12
  %switch.maskindex = trunc nuw i64 %13 to i16
  %switch.shifted = lshr i16 547, %switch.maskindex
  %switch.lobit = trunc i16 %switch.shifted to i1
  br i1 %switch.lobit, label %switch.lookup, label %15

switch.lookup:                                    ; preds = %switch.hole_check
  %switch.gep = getelementptr inbounds nuw [10 x i32], ptr @switch.table.rb_RB_TYPE_P, i64 0, i64 %13
  %switch.load = load i32, ptr %switch.gep, align 4
  br label %rbimpl_RB_TYPE_P_fastpath.exit

rbimpl_RB_TYPE_P_fastpath.exit:                   ; preds = %7, %15, %17, %switch.lookup
  %.0.i6.i = phi i32 [ %11, %7 ], [ 21, %15 ], [ %spec.select.i.i, %17 ], [ %switch.load, %switch.lookup ]
  %20 = icmp eq i32 %1, %.0.i6.i
  ret i1 %20
}